target datalayout = "e-m:e-p270:32:32-p271:32:32-p272:64:64-i64:64-i128:128-f80:128-n8:16:32:64-S128"
target triple = "x86_64-pc-linux-gnu"

%"class.std::__cxx11::basic_string" = type { %"struct.std::__cxx11::basic_string<char>::_Alloc_hider", i64, %union.anon }
%"struct.std::__cxx11::basic_string<char>::_Alloc_hider" = type { ptr }
%union.anon = type { i64, [8 x i8] }
%"class.std::__shared_ptr" = type { ptr, %"class.std::__shared_count" }
%"class.std::__shared_count" = type { ptr }
%"class.std::shared_ptr" = type { %"class.std::__shared_ptr" }
%"class.rocksdb::blob_db::BlobIndexCompactionFilterBase" = type { %"class.rocksdb::LayeredCompactionFilterBase", %"struct.rocksdb::blob_db::BlobCompactionContext", i64, ptr, %"class.std::shared_ptr", %"class.std::shared_ptr.15", i64, i64, i64, i64 }
%"class.rocksdb::LayeredCompactionFilterBase" = type { %"class.rocksdb::CompactionFilter", ptr, %"class.std::unique_ptr" }
%"class.rocksdb::CompactionFilter" = type { %"class.rocksdb::Customizable" }
%"class.rocksdb::Customizable" = type { %"class.rocksdb::Configurable" }
%"class.rocksdb::Configurable" = type { ptr, %"class.std::vector.3" }
%"class.std::vector.3" = type { %"struct.std::_Vector_base.4" }
%"struct.std::_Vector_base.4" = type { %"struct.std::_Vector_base<rocksdb::Configurable::RegisteredOptions, std::allocator<rocksdb::Configurable::RegisteredOptions>>::_Vector_impl" }
%"struct.std::_Vector_base<rocksdb::Configurable::RegisteredOptions, std::allocator<rocksdb::Configurable::RegisteredOptions>>::_Vector_impl" = type { %"struct.std::_Vector_base<rocksdb::Configurable::RegisteredOptions, std::allocator<rocksdb::Configurable::RegisteredOptions>>::_Vector_impl_data" }
%"struct.std::_Vector_base<rocksdb::Configurable::RegisteredOptions, std::allocator<rocksdb::Configurable::RegisteredOptions>>::_Vector_impl_data" = type { ptr, ptr, ptr }
%"class.std::unique_ptr" = type { %"struct.std::__uniq_ptr_data" }
%"struct.std::__uniq_ptr_data" = type { %"class.std::__uniq_ptr_impl" }
%"class.std::__uniq_ptr_impl" = type { %"class.std::tuple" }
%"class.std::tuple" = type { %"struct.std::_Tuple_impl" }
%"struct.std::_Tuple_impl" = type { %"struct.std::_Head_base.9" }
%"struct.std::_Head_base.9" = type { ptr }
%"struct.rocksdb::blob_db::BlobCompactionContext" = type { ptr, i64, %"class.std::unordered_set", i64, i64 }
%"class.std::unordered_set" = type { %"class.std::_Hashtable" }
%"class.std::_Hashtable" = type { ptr, i64, %"struct.std::__detail::_Hash_node_base", i64, %"struct.std::__detail::_Prime_rehash_policy", ptr }
%"struct.std::__detail::_Hash_node_base" = type { ptr }
%"struct.std::__detail::_Prime_rehash_policy" = type { float, i64 }
%"class.std::shared_ptr.15" = type { %"class.std::__shared_ptr.16" }
%"class.std::__shared_ptr.16" = type { ptr, %"class.std::__shared_count" }
%"class.rocksdb::blob_db::BlobDBImpl" = type { %"class.rocksdb::blob_db::BlobDB", %"class.std::__cxx11::basic_string", ptr, ptr, ptr, %"struct.rocksdb::blob_db::BlobDBOptions", %"struct.rocksdb::DBOptions", %"struct.rocksdb::ColumnFamilyOptions", %"struct.rocksdb::FileOptions", ptr, %"class.std::__cxx11::basic_string", %"class.std::unique_ptr.123", %"class.rocksdb::port::RWMutex", %"class.rocksdb::port::Mutex", %"struct.std::atomic", %"class.std::map", %"class.std::map", i64, %"class.std::shared_ptr", %"class.std::set", i8, [7 x i8], %class.TimerQueue, %"struct.std::atomic.144", %"struct.std::atomic", %"struct.std::atomic", i64, i64, %"class.std::__cxx11::list", %"class.rocksdb::port::Mutex", i32, i32 }
%"class.rocksdb::blob_db::BlobDB" = type { %"class.rocksdb::StackableDB" }
%"class.rocksdb::StackableDB" = type { %"class.rocksdb::DB", ptr, %"class.std::shared_ptr.26" }
%"class.rocksdb::DB" = type { ptr }
%"class.std::shared_ptr.26" = type { %"class.std::__shared_ptr.27" }
%"class.std::__shared_ptr.27" = type { ptr, %"class.std::__shared_count" }
%"struct.rocksdb::blob_db::BlobDBOptions" = type <{ %"class.std::__cxx11::basic_string", i8, i8, [6 x i8], i64, i64, i64, i64, i64, i8, i8, [6 x i8], double, i8, [7 x i8] }>
%"struct.rocksdb::DBOptions" = type <{ i8, i8, i8, i8, i8, i8, i8, i8, i8, [7 x i8], ptr, %"class.std::shared_ptr.29", %"class.std::shared_ptr.32", %"class.std::shared_ptr.35", i8, [3 x i8], i32, i32, [4 x i8], i64, %"class.std::shared_ptr.38", i8, [7 x i8], %"class.std::vector.41", %"class.std::__cxx11::basic_string", %"class.std::__cxx11::basic_string", i64, i32, i32, i32, i32, i64, i64, i64, i64, i64, i32, [4 x i8], i64, i64, i64, i8, i8, i8, i8, i8, i8, [2 x i8], i32, i32, i8, [7 x i8], i64, i8, [7 x i8], i64, %"class.std::shared_ptr.46", i64, i64, i8, [7 x i8], i64, i64, i8, [7 x i8], %"class.std::vector.49", i8, [7 x i8], i64, i8, i8, i8, i8, [4 x i8], i64, i64, i64, i8, i8, i8, i8, [4 x i8], %"class.std::shared_ptr.54", ptr, i8, i8, i8, i8, i8, i8, i8, i8, i8, i8, i8, i8, i8, i8, [2 x i8], i64, %"class.std::shared_ptr.57", i8, [3 x i8], i32, i64, i8, [7 x i8], %"class.std::__cxx11::basic_string", %"class.rocksdb::SmallEnumSet", %"class.std::shared_ptr.60", i8, i8, [6 x i8], %"class.std::__cxx11::basic_string", i64, i64, i64, i8, i8, [6 x i8] }>
%"class.std::shared_ptr.29" = type { %"class.std::__shared_ptr.30" }
%"class.std::__shared_ptr.30" = type { ptr, %"class.std::__shared_count" }
%"class.std::shared_ptr.32" = type { %"class.std::__shared_ptr.33" }
%"class.std::__shared_ptr.33" = type { ptr, %"class.std::__shared_count" }
%"class.std::shared_ptr.35" = type { %"class.std::__shared_ptr.36" }
%"class.std::__shared_ptr.36" = type { ptr, %"class.std::__shared_count" }
%"class.std::shared_ptr.38" = type { %"class.std::__shared_ptr.39" }
%"class.std::__shared_ptr.39" = type { ptr, %"class.std::__shared_count" }
%"class.std::vector.41" = type { %"struct.std::_Vector_base.42" }
%"struct.std::_Vector_base.42" = type { %"struct.std::_Vector_base<rocksdb::DbPath, std::allocator<rocksdb::DbPath>>::_Vector_impl" }
%"struct.std::_Vector_base<rocksdb::DbPath, std::allocator<rocksdb::DbPath>>::_Vector_impl" = type { %"struct.std::_Vector_base<rocksdb::DbPath, std::allocator<rocksdb::DbPath>>::_Vector_impl_data" }
%"struct.std::_Vector_base<rocksdb::DbPath, std::allocator<rocksdb::DbPath>>::_Vector_impl_data" = type { ptr, ptr, ptr }
%"class.std::shared_ptr.46" = type { %"class.std::__shared_ptr.47" }
%"class.std::__shared_ptr.47" = type { ptr, %"class.std::__shared_count" }
%"class.std::vector.49" = type { %"struct.std::_Vector_base.50" }
%"struct.std::_Vector_base.50" = type { %"struct.std::_Vector_base<std::shared_ptr<rocksdb::EventListener>, std::allocator<std::shared_ptr<rocksdb::EventListener>>>::_Vector_impl" }
%"struct.std::_Vector_base<std::shared_ptr<rocksdb::EventListener>, std::allocator<std::shared_ptr<rocksdb::EventListener>>>::_Vector_impl" = type { %"struct.std::_Vector_base<std::shared_ptr<rocksdb::EventListener>, std::allocator<std::shared_ptr<rocksdb::EventListener>>>::_Vector_impl_data" }
%"struct.std::_Vector_base<std::shared_ptr<rocksdb::EventListener>, std::allocator<std::shared_ptr<rocksdb::EventListener>>>::_Vector_impl_data" = type { ptr, ptr, ptr }
%"class.std::shared_ptr.54" = type { %"class.std::__shared_ptr.55" }
%"class.std::__shared_ptr.55" = type { ptr, %"class.std::__shared_count" }
%"class.std::shared_ptr.57" = type { %"class.std::__shared_ptr.58" }
%"class.std::__shared_ptr.58" = type { ptr, %"class.std::__shared_count" }
%"class.rocksdb::SmallEnumSet" = type { i64 }
%"class.std::shared_ptr.60" = type { %"class.std::__shared_ptr.61" }
%"class.std::__shared_ptr.61" = type { ptr, %"class.std::__shared_count" }
%"struct.rocksdb::ColumnFamilyOptions" = type { %"struct.rocksdb::AdvancedColumnFamilyOptions.base", ptr, %"class.std::shared_ptr.89", ptr, %"class.std::shared_ptr.92", i64, i8, i8, [6 x i8], %"struct.rocksdb::CompressionOptions", %"struct.rocksdb::CompressionOptions", i32, %"class.std::shared_ptr.63", i64, i64, i8, %"class.std::shared_ptr.95", %"class.std::vector.41", %"class.std::shared_ptr.98", %"class.std::shared_ptr.101", i32, i32 }
%"struct.rocksdb::AdvancedColumnFamilyOptions.base" = type <{ i32, i32, i32, [4 x i8], i64, i8, [7 x i8], i64, double, ptr, double, i8, [7 x i8], i64, %"class.std::shared_ptr.63", i32, [4 x i8], i64, %"class.std::vector.66", i32, i32, i32, [4 x i8], i64, i32, i8, [3 x i8], double, %"class.std::vector.71", i64, i64, i64, i8, i8, [2 x i8], %"class.rocksdb::CompactionOptionsUniversal", [4 x i8], %"struct.rocksdb::CompactionOptionsFIFO", i64, %"class.std::shared_ptr.81", %"class.std::vector.84", i64, i8, i8, i8, i8, i8, [3 x i8], i64, i64, i64, i8, i8, i8, [5 x i8], i64, i64, i8, [7 x i8], i64, i64, i8, i8, [6 x i8], double, double, i64, i32, [4 x i8], %"class.std::shared_ptr.54", i8, [3 x i8], i32, i8, i8, [2 x i8], i32, i8 }>
%"class.std::vector.66" = type { %"struct.std::_Vector_base.67" }
%"struct.std::_Vector_base.67" = type { %"struct.std::_Vector_base<rocksdb::CompressionType, std::allocator<rocksdb::CompressionType>>::_Vector_impl" }
%"struct.std::_Vector_base<rocksdb::CompressionType, std::allocator<rocksdb::CompressionType>>::_Vector_impl" = type { %"struct.std::_Vector_base<rocksdb::CompressionType, std::allocator<rocksdb::CompressionType>>::_Vector_impl_data" }
%"struct.std::_Vector_base<rocksdb::CompressionType, std::allocator<rocksdb::CompressionType>>::_Vector_impl_data" = type { ptr, ptr, ptr }
%"class.std::vector.71" = type { %"struct.std::_Vector_base.72" }
%"struct.std::_Vector_base.72" = type { %"struct.std::_Vector_base<int, std::allocator<int>>::_Vector_impl" }
%"struct.std::_Vector_base<int, std::allocator<int>>::_Vector_impl" = type { %"struct.std::_Vector_base<int, std::allocator<int>>::_Vector_impl_data" }
%"struct.std::_Vector_base<int, std::allocator<int>>::_Vector_impl_data" = type { ptr, ptr, ptr }
%"class.rocksdb::CompactionOptionsUniversal" = type <{ i32, i32, i32, i32, i32, i32, i32, i8, i8, [2 x i8] }>
%"struct.rocksdb::CompactionOptionsFIFO" = type { i64, i8, i64, %"class.std::vector.76" }
%"class.std::vector.76" = type { %"struct.std::_Vector_base.77" }
%"struct.std::_Vector_base.77" = type { %"struct.std::_Vector_base<rocksdb::FileTemperatureAge, std::allocator<rocksdb::FileTemperatureAge>>::_Vector_impl" }
%"struct.std::_Vector_base<rocksdb::FileTemperatureAge, std::allocator<rocksdb::FileTemperatureAge>>::_Vector_impl" = type { %"struct.std::_Vector_base<rocksdb::FileTemperatureAge, std::allocator<rocksdb::FileTemperatureAge>>::_Vector_impl_data" }
%"struct.std::_Vector_base<rocksdb::FileTemperatureAge, std::allocator<rocksdb::FileTemperatureAge>>::_Vector_impl_data" = type { ptr, ptr, ptr }
%"class.std::shared_ptr.81" = type { %"class.std::__shared_ptr.82" }
%"class.std::__shared_ptr.82" = type { ptr, %"class.std::__shared_count" }
%"class.std::vector.84" = type { %"struct.std::_Vector_base.85" }
%"struct.std::_Vector_base.85" = type { %"struct.std::_Vector_base<std::shared_ptr<rocksdb::TablePropertiesCollectorFactory>, std::allocator<std::shared_ptr<rocksdb::TablePropertiesCollectorFactory>>>::_Vector_impl" }
%"struct.std::_Vector_base<std::shared_ptr<rocksdb::TablePropertiesCollectorFactory>, std::allocator<std::shared_ptr<rocksdb::TablePropertiesCollectorFactory>>>::_Vector_impl" = type { %"struct.std::_Vector_base<std::shared_ptr<rocksdb::TablePropertiesCollectorFactory>, std::allocator<std::shared_ptr<rocksdb::TablePropertiesCollectorFactory>>>::_Vector_impl_data" }
%"struct.std::_Vector_base<std::shared_ptr<rocksdb::TablePropertiesCollectorFactory>, std::allocator<std::shared_ptr<rocksdb::TablePropertiesCollectorFactory>>>::_Vector_impl_data" = type { ptr, ptr, ptr }
%"class.std::shared_ptr.89" = type { %"class.std::__shared_ptr.90" }
%"class.std::__shared_ptr.90" = type { ptr, %"class.std::__shared_count" }
%"class.std::shared_ptr.92" = type { %"class.std::__shared_ptr.93" }
%"class.std::__shared_ptr.93" = type { ptr, %"class.std::__shared_count" }
%"struct.rocksdb::CompressionOptions" = type <{ i32, i32, i32, i32, i32, i32, i8, [7 x i8], i64, i8, [3 x i8], i32, i8, [7 x i8] }>
%"class.std::shared_ptr.63" = type { %"class.std::__shared_ptr.64" }
%"class.std::__shared_ptr.64" = type { ptr, %"class.std::__shared_count" }
%"class.std::shared_ptr.95" = type { %"class.std::__shared_ptr.96" }
%"class.std::__shared_ptr.96" = type { ptr, %"class.std::__shared_count" }
%"class.std::shared_ptr.98" = type { %"class.std::__shared_ptr.99" }
%"class.std::__shared_ptr.99" = type { ptr, %"class.std::__shared_count" }
%"class.std::shared_ptr.101" = type { %"class.std::__shared_ptr.102" }
%"class.std::__shared_ptr.102" = type { ptr, %"class.std::__shared_count" }
%"struct.rocksdb::FileOptions" = type <{ %"struct.rocksdb::EnvOptions", %"struct.rocksdb::IOOptions", i8, i8, [6 x i8] }>
%"struct.rocksdb::EnvOptions" = type { i8, i8, i8, i8, i8, i8, i64, i8, i8, i64, i64, ptr }
%"struct.rocksdb::IOOptions" = type <{ %"class.std::chrono::duration", i8, [3 x i8], i32, i8, [7 x i8], %"class.std::unordered_map", i8, i8, i8, i8, [4 x i8] }>
%"class.std::chrono::duration" = type { i64 }
%"class.std::unordered_map" = type { %"class.std::_Hashtable.104" }
%"class.std::_Hashtable.104" = type { ptr, i64, %"struct.std::__detail::_Hash_node_base", i64, %"struct.std::__detail::_Prime_rehash_policy", ptr }
%"class.std::unique_ptr.123" = type { %"struct.std::__uniq_ptr_data.124" }
%"struct.std::__uniq_ptr_data.124" = type { %"class.std::__uniq_ptr_impl.125" }
%"class.std::__uniq_ptr_impl.125" = type { %"class.std::tuple.126" }
%"class.std::tuple.126" = type { %"struct.std::_Tuple_impl.127" }
%"struct.std::_Tuple_impl.127" = type { %"struct.std::_Head_base.130" }
%"struct.std::_Head_base.130" = type { ptr }
%"class.rocksdb::port::RWMutex" = type { %union.pthread_rwlock_t }
%union.pthread_rwlock_t = type { %struct.__pthread_rwlock_arch_t }
%struct.__pthread_rwlock_arch_t = type { i32, i32, i32, i32, i32, i32, i32, i32, i8, [7 x i8], i64, i32 }
%"class.std::map" = type { %"class.std::_Rb_tree" }
%"class.std::_Rb_tree" = type { %"struct.std::_Rb_tree<unsigned long, std::pair<const unsigned long, std::shared_ptr<rocksdb::blob_db::BlobFile>>, std::_Select1st<std::pair<const unsigned long, std::shared_ptr<rocksdb::blob_db::BlobFile>>>, std::less<unsigned long>>::_Rb_tree_impl" }
%"struct.std::_Rb_tree<unsigned long, std::pair<const unsigned long, std::shared_ptr<rocksdb::blob_db::BlobFile>>, std::_Select1st<std::pair<const unsigned long, std::shared_ptr<rocksdb::blob_db::BlobFile>>>, std::less<unsigned long>>::_Rb_tree_impl" = type { [8 x i8], %"struct.std::_Rb_tree_header" }
%"struct.std::_Rb_tree_header" = type { %"struct.std::_Rb_tree_node_base", i64 }
%"struct.std::_Rb_tree_node_base" = type { i32, ptr, ptr, ptr }
%"class.std::set" = type { %"class.std::_Rb_tree.134" }
%"class.std::_Rb_tree.134" = type { %"struct.std::_Rb_tree<std::shared_ptr<rocksdb::blob_db::BlobFile>, std::shared_ptr<rocksdb::blob_db::BlobFile>, std::_Identity<std::shared_ptr<rocksdb::blob_db::BlobFile>>, rocksdb::blob_db::BlobFileComparatorTTL>::_Rb_tree_impl" }
%"struct.std::_Rb_tree<std::shared_ptr<rocksdb::blob_db::BlobFile>, std::shared_ptr<rocksdb::blob_db::BlobFile>, std::_Identity<std::shared_ptr<rocksdb::blob_db::BlobFile>>, rocksdb::blob_db::BlobFileComparatorTTL>::_Rb_tree_impl" = type { [8 x i8], %"struct.std::_Rb_tree_header" }
%class.TimerQueue = type <{ i8, i8, [6 x i8], i64, %"class.std::condition_variable", %"class.std::mutex", %"class.TimerQueue::Queue", %"class.std::thread", i8, [7 x i8] }>
%"class.std::condition_variable" = type { %"class.std::__condvar" }
%"class.std::__condvar" = type { %union.pthread_cond_t }
%union.pthread_cond_t = type { %struct.__pthread_cond_s }
%struct.__pthread_cond_s = type { %union.__atomic_wide_counter, %union.__atomic_wide_counter, [2 x i32], [2 x i32], i32, i32, [2 x i32] }
%union.__atomic_wide_counter = type { i64 }
%"class.std::mutex" = type { %"class.std::__mutex_base" }
%"class.std::__mutex_base" = type { %union.pthread_mutex_t }
%union.pthread_mutex_t = type { %struct.__pthread_mutex_s }
%struct.__pthread_mutex_s = type { i32, i32, i32, i32, i32, i16, i16, %struct.__pthread_internal_list }
%struct.__pthread_internal_list = type { ptr, ptr }
%"class.TimerQueue::Queue" = type { %"class.std::priority_queue.base", [7 x i8] }
%"class.std::priority_queue.base" = type <{ %"class.std::vector.139", i8 }>
%"class.std::vector.139" = type { %"struct.std::_Vector_base.140" }
%"struct.std::_Vector_base.140" = type { %"struct.std::_Vector_base<TimerQueue::WorkItem, std::allocator<TimerQueue::WorkItem>>::_Vector_impl" }
%"struct.std::_Vector_base<TimerQueue::WorkItem, std::allocator<TimerQueue::WorkItem>>::_Vector_impl" = type { %"struct.std::_Vector_base<TimerQueue::WorkItem, std::allocator<TimerQueue::WorkItem>>::_Vector_impl_data" }
%"struct.std::_Vector_base<TimerQueue::WorkItem, std::allocator<TimerQueue::WorkItem>>::_Vector_impl_data" = type { ptr, ptr, ptr }
%"class.std::thread" = type { %"class.std::thread::id" }
%"class.std::thread::id" = type { i64 }
%"struct.std::atomic.144" = type { %"struct.std::__atomic_base.145" }
%"struct.std::__atomic_base.145" = type { i32 }
%"struct.std::atomic" = type { %"struct.std::__atomic_base" }
%"struct.std::__atomic_base" = type { i64 }
%"class.std::__cxx11::list" = type { %"class.std::__cxx11::_List_base" }
%"class.std::__cxx11::_List_base" = type { %"struct.std::__cxx11::_List_base<std::shared_ptr<rocksdb::blob_db::BlobFile>, std::allocator<std::shared_ptr<rocksdb::blob_db::BlobFile>>>::_List_impl" }
%"struct.std::__cxx11::_List_base<std::shared_ptr<rocksdb::blob_db::BlobFile>, std::allocator<std::shared_ptr<rocksdb::blob_db::BlobFile>>>::_List_impl" = type { %"struct.std::__detail::_List_node_header" }
%"struct.std::__detail::_List_node_header" = type { %"struct.std::__detail::_List_node_base", i64 }
%"struct.std::__detail::_List_node_base" = type { ptr, ptr }
%"class.rocksdb::port::Mutex" = type { %union.pthread_mutex_t }
%"struct.std::pair" = type { i64, i64 }
%"class.rocksdb::blob_db::BlobFile" = type <{ ptr, %"class.std::__cxx11::basic_string", i64, %"class.std::unordered_set", ptr, i32, i8, i8, [2 x i8], %"struct.std::pair", %"struct.std::atomic", %"struct.std::atomic", %"struct.rocksdb::BlobLogHeader", %"struct.std::atomic.149", [7 x i8], i64, %"struct.std::atomic.149", [7 x i8], i64, %"class.std::shared_ptr.15", %"class.std::shared_ptr.151", %"class.rocksdb::port::RWMutex", %"struct.std::atomic.154", i8, i8, [6 x i8] }>
%"struct.rocksdb::BlobLogHeader" = type { i32, i32, i8, i8, %"struct.std::pair" }
%"struct.std::atomic.149" = type { %"struct.std::__atomic_base.150" }
%"struct.std::__atomic_base.150" = type { i8 }
%"class.std::shared_ptr.151" = type { %"class.std::__shared_ptr.152" }
%"class.std::__shared_ptr.152" = type { ptr, %"class.std::__shared_count" }
%"struct.std::atomic.154" = type { %"struct.std::__atomic_base.155" }
%"struct.std::__atomic_base.155" = type { i64 }

; Function Attrs: noinline noreturn nounwind uwtable
define linkonce_odr hidden void @__clang_call_terminate(ptr noundef %0) #6 comdat {
  %2 = call ptr @__cxa_begin_catch(ptr %0) #4
  call void @_ZSt9terminatev() #21
  unreachable
}

; Function Attrs: mustprogress nounwind uwtable
define linkonce_odr noundef i32 @_ZStanSt12memory_orderSt23__memory_order_modifier(i32 noundef %0, i32 noundef %1) #3 comdat {
  %3 = alloca i32, align 4
  %4 = alloca i32, align 4
  store i32 %0, ptr %3, align 4, !tbaa !592
  store i32 %1, ptr %4, align 4, !tbaa !594
  %5 = load i32, ptr %3, align 4, !tbaa !592
  %6 = load i32, ptr %4, align 4, !tbaa !594
  %7 = and i32 %5, %6
  ret i32 %7
}

; Function Attrs: mustprogress nounwind uwtable
define linkonce_odr noundef ptr @_ZNKSt12__shared_ptrIN7rocksdb7blob_db8BlobFileELN9__gnu_cxx12_Lock_policyE2EE3getEv(ptr noundef nonnull align 8 dereferenceable(16) %0) #3 comdat align 2 {
  %2 = alloca ptr, align 8
  store ptr %0, ptr %2, align 8, !tbaa !52
  %3 = load ptr, ptr %2, align 8
  %4 = getelementptr inbounds nuw %"class.std::__shared_ptr", ptr %3, i32 0, i32 0
  %5 = load ptr, ptr %4, align 8, !tbaa !54
  ret ptr %5
}

; Function Attrs: alwaysinline mustprogress nounwind uwtable
define linkonce_odr noundef i64 @_ZNKSt13__atomic_baseImE4loadESt12memory_order(ptr noundef nonnull align 8 dereferenceable(8) %0, i32 noundef %1) #16 comdat align 2 personality ptr @__gxx_personality_v0 {
  %3 = alloca ptr, align 8
  %4 = alloca i32, align 4
  %5 = alloca i32, align 4
  %6 = alloca i64, align 8
  store ptr %0, ptr %3, align 8, !tbaa !386
  store i32 %1, ptr %4, align 4, !tbaa !592
  %7 = load ptr, ptr %3, align 8
  call void @llvm.lifetime.start.p0(i64 4, ptr %5) #4
  %8 = load i32, ptr %4, align 4, !tbaa !592
  %9 = invoke noundef i32 @_ZStanSt12memory_orderSt23__memory_order_modifier(i32 noundef %8, i32 noundef 65535)
          to label %10 unwind label %27

10:                                               ; preds = %2
  store i32 %9, ptr %5, align 4, !tbaa !592
  br label %11

11:                                               ; preds = %10
  br label %12

12:                                               ; preds = %11
  br label %13

13:                                               ; preds = %12
  br label %14

14:                                               ; preds = %13
  br label %15

15:                                               ; preds = %14
  br label %16

16:                                               ; preds = %15
  %17 = getelementptr inbounds nuw %"struct.std::__atomic_base", ptr %7, i32 0, i32 0
  %18 = load i32, ptr %4, align 4, !tbaa !592
  switch i32 %18, label %19 [
    i32 1, label %21
    i32 2, label %21
    i32 5, label %23
  ]

19:                                               ; preds = %16
  %20 = load atomic i64, ptr %17 monotonic, align 8
  store i64 %20, ptr %6, align 8
  br label %25

21:                                               ; preds = %16, %16
  %22 = load atomic i64, ptr %17 acquire, align 8
  store i64 %22, ptr %6, align 8
  br label %25

23:                                               ; preds = %16
  %24 = load atomic i64, ptr %17 seq_cst, align 8
  store i64 %24, ptr %6, align 8
  br label %25

25:                                               ; preds = %23, %21, %19
  %26 = load i64, ptr %6, align 8, !tbaa !4
  call void @llvm.lifetime.end.p0(i64 4, ptr %5) #4
  ret i64 %26

27:                                               ; preds = %2
  %28 = landingpad { ptr, i32 }
          catch ptr null
  %29 = extractvalue { ptr, i32 } %28, 0
  call void @__clang_call_terminate(ptr %29) #21
  unreachable
}

; Function Attrs: mustprogress nounwind uwtable
define linkonce_odr noundef ptr @_ZNKSt19__shared_ptr_accessIN7rocksdb7blob_db8BlobFileELN9__gnu_cxx12_Lock_policyE2ELb0ELb0EE6_M_getEv(ptr noundef nonnull align 1 dereferenceable(1) %0) #3 comdat align 2 {
  %2 = alloca ptr, align 8
  store ptr %0, ptr %2, align 8, !tbaa !371
  %3 = load ptr, ptr %2, align 8
  %4 = call noundef ptr @_ZNKSt12__shared_ptrIN7rocksdb7blob_db8BlobFileELN9__gnu_cxx12_Lock_policyE2EE3getEv(ptr noundef nonnull align 8 dereferenceable(16) %3) #4
  ret ptr %4
}

; Function Attrs: mustprogress nounwind uwtable
define linkonce_odr noundef i64 @_ZNK7rocksdb7blob_db8BlobFile11GetFileSizeEv(ptr noundef nonnull align 8 dereferenceable(314) %0) #3 comdat align 2 {
  %2 = alloca ptr, align 8
  store ptr %0, ptr %2, align 8, !tbaa !373
  %3 = load ptr, ptr %2, align 8
  %4 = getelementptr inbounds nuw %"class.rocksdb::blob_db::BlobFile", ptr %3, i32 0, i32 11
  %5 = call noundef i64 @_ZNKSt13__atomic_baseImE4loadESt12memory_order(ptr noundef nonnull align 8 dereferenceable(8) %4, i32 noundef 2) #4
  ret i64 %5
}

; Function Attrs: mustprogress nounwind uwtable
define linkonce_odr noundef ptr @_ZNKSt19__shared_ptr_accessIN7rocksdb7blob_db8BlobFileELN9__gnu_cxx12_Lock_policyE2ELb0ELb0EEptEv(ptr noundef nonnull align 1 dereferenceable(1) %0) #3 comdat align 2 {
  %2 = alloca ptr, align 8
  store ptr %0, ptr %2, align 8, !tbaa !371
  %3 = load ptr, ptr %2, align 8
  %4 = call noundef ptr @_ZNKSt19__shared_ptr_accessIN7rocksdb7blob_db8BlobFileELN9__gnu_cxx12_Lock_policyE2ELb0ELb0EE6_M_getEv(ptr noundef nonnull align 1 dereferenceable(1) %3) #4
  ret ptr %4
}

; Function Attrs: mustprogress uwtable
define noundef zeroext i1 @_ZNK7rocksdb7blob_db29BlobIndexCompactionFilterBase35CloseAndRegisterNewBlobFileIfNeededEv(ptr noundef nonnull align 8 dereferenceable(216) %0) #5 align 2 {
  %2 = alloca i1, align 1
  %3 = alloca ptr, align 8
  %4 = alloca ptr, align 8
  %5 = alloca i32, align 4
  store ptr %0, ptr %3, align 8, !tbaa !59
  %6 = load ptr, ptr %3, align 8
  call void @llvm.lifetime.start.p0(i64 8, ptr %4) #4
  %7 = getelementptr inbounds nuw %"class.rocksdb::blob_db::BlobIndexCompactionFilterBase", ptr %6, i32 0, i32 1
  %8 = getelementptr inbounds nuw %"struct.rocksdb::blob_db::BlobCompactionContext", ptr %7, i32 0, i32 0
  %9 = load ptr, ptr %8, align 8, !tbaa !61
  store ptr %9, ptr %4, align 8, !tbaa !94
  %10 = getelementptr inbounds nuw %"class.rocksdb::blob_db::BlobIndexCompactionFilterBase", ptr %6, i32 0, i32 4
  %11 = call noundef ptr @_ZNKSt19__shared_ptr_accessIN7rocksdb7blob_db8BlobFileELN9__gnu_cxx12_Lock_policyE2ELb0ELb0EEptEv(ptr noundef nonnull align 1 dereferenceable(1) %10) #4
  %12 = call noundef i64 @_ZNK7rocksdb7blob_db8BlobFile11GetFileSizeEv(ptr noundef nonnull align 8 dereferenceable(314) %11)
  %13 = load ptr, ptr %4, align 8, !tbaa !94
  %14 = getelementptr inbounds nuw %"class.rocksdb::blob_db::BlobDBImpl", ptr %13, i32 0, i32 5
  %15 = getelementptr inbounds nuw %"struct.rocksdb::blob_db::BlobDBOptions", ptr %14, i32 0, i32 8
  %16 = load i64, ptr %15, align 8, !tbaa !319
  %17 = icmp ult i64 %12, %16
  br i1 %17, label %18, label %19

18:                                               ; preds = %1
  store i1 true, ptr %2, align 1
  store i32 1, ptr %5, align 4
  br label %21

19:                                               ; preds = %1
  %20 = call noundef zeroext i1 @_ZNK7rocksdb7blob_db29BlobIndexCompactionFilterBase27CloseAndRegisterNewBlobFileEv(ptr noundef nonnull align 8 dereferenceable(216) %6)
  store i1 %20, ptr %2, align 1
  store i32 1, ptr %5, align 4
  br label %21

21:                                               ; preds = %19, %18
  call void @llvm.lifetime.end.p0(i64 8, ptr %4) #4
  %22 = load i1, ptr %2, align 1
  ret i1 %22
}