; Function Attrs: mustprogress uwtable
define noundef zeroext i1 @_ZNK7rocksdb7blob_db29BlobIndexCompactionFilterBase35CloseAndRegisterNewBlobFileIfNeededEv(ptr noundef nonnull align 8 captures(none) dereferenceable(216) %0) local_unnamed_addr #4 align 2 personality ptr @__gxx_personality_v0 {
  %2 = getelementptr inbounds nuw i8, ptr %0, i64 48
  %3 = load ptr, ptr %2, align 8, !tbaa !18
  %4 = getelementptr inbounds nuw i8, ptr %0, i64 152
  %5 = load ptr, ptr %4, align 8, !tbaa !64
  %6 = getelementptr inbounds nuw i8, ptr %5, i64 144
  %7 = load atomic i64, ptr %6 acquire, align 8
  %8 = getelementptr inbounds nuw i8, ptr %3, i64 160
  %9 = load i64, ptr %8, align 8, !tbaa !301
  %10 = icmp ult i64 %7, %9
  br i1 %10, label %13, label %11

11:                                               ; preds = %1
  %12 = tail call noundef zeroext i1 @_ZNK7rocksdb7blob_db29BlobIndexCompactionFilterBase27CloseAndRegisterNewBlobFileEv(ptr noundef nonnull align 8 dereferenceable(216) %0)
  br label %13

13:                                               ; preds = %1, %11
  %.0 = phi i1 [ %12, %11 ], [ true, %1 ]
  ret i1 %.0
}